target datalayout = "e-m:e-p270:32:32-p271:32:32-p272:64:64-i64:64-i128:128-f80:128-n8:16:32:64-S128"
target triple = "x86_64-pc-linux-gnu"

%class.params_ref = type { ptr }
%class.asserted_formulas = type <{ ptr, ptr, %class.params_ref, %class.th_rewriter, %class.expr_substitution, %class.scoped_expr_substitution, %class.defined_names, %struct.static_features, %class.vector.10, i32, i8, [3 x i8], %class.macro_manager, %class.scoped_ptr.63, %class.maximize_bv_sharing_rw, i8, i8, [6 x i8], %class.svector.84, %"class.asserted_formulas::reduce_asserted_formulas_fn", %"class.asserted_formulas::distribute_forall_fn", %"class.asserted_formulas::pattern_inference_fn", %"class.asserted_formulas::refine_inj_axiom_fn", %"class.asserted_formulas::max_bv_sharing_fn", %"class.asserted_formulas::elim_term_ite_fn", %"class.asserted_formulas::qe_lite_fn", %"class.asserted_formulas::pull_nested_quantifiers", %"class.asserted_formulas::elim_bvs_from_quantifiers", %"class.asserted_formulas::cheap_quant_fourier_motzkin", %"class.asserted_formulas::apply_bit2int", %"class.asserted_formulas::bv_size_reduce_fn", %"class.asserted_formulas::lift_ite", %"class.asserted_formulas::ng_lift_ite", %"class.asserted_formulas::find_macros_fn", %"class.asserted_formulas::propagate_values_fn", %"class.asserted_formulas::nnf_cnf_fn", %"class.asserted_formulas::apply_quasi_macros_fn", %"class.asserted_formulas::flatten_clauses_fn", i32, [4 x i8] }>
%class.th_rewriter = type { ptr, %class.params_ref }
%class.expr_substitution = type <{ ptr, %class.obj_map, %class.scoped_ptr, %class.scoped_ptr.0, i8, [7 x i8] }>
%class.obj_map = type { %class.core_hashtable }
%class.core_hashtable = type <{ ptr, i32, i32, i32, [4 x i8] }>
%class.scoped_ptr = type { ptr }
%class.scoped_ptr.0 = type { ptr }
%class.scoped_expr_substitution = type { ptr, %class.ref_vector, %class.svector }
%class.ref_vector = type { %class.ref_vector_core }
%class.ref_vector_core = type { %class.ref_manager_wrapper, %class.ptr_vector }
%class.ref_manager_wrapper = type { ptr }
%class.ptr_vector = type { %class.vector }
%class.vector = type { ptr }
%class.svector = type { %class.vector.1 }
%class.vector.1 = type { ptr }
%class.defined_names = type { ptr, ptr }
%struct.static_features = type { ptr, %class.arith_util, %class.bv_util, %class.array_util, %class.fpa_util, %class.seq_util, i32, i32, i32, i32, i32, %class.ast_mark, %class.ast_mark, i8, i32, i32, i32, i32, i32, i32, i32, i32, i32, i32, i32, i32, i32, i32, i32, i32, i32, i32, i32, i32, i32, i32, i32, i32, i32, i32, i32, i32, i8, i8, i8, i8, i8, i8, i8, i8, i8, i8, %class.rational, i32, i32, i32, i32, i32, i32, i32, i32, i32, %class.svector, %class.svector, %class.svector, %class.svector, %class.svector, i32, %class.svector, %class.svector, i32, [4 x i8], %class.u_map, %class.u_map, %class.u_map, i32, %class.svector.6, %class.symbol, %class.symbol, %class.symbol, %class.svector.8 }
%class.arith_util = type { ptr, ptr }
%class.bv_util = type { %class.bv_recognizers, ptr, ptr }
%class.bv_recognizers = type { i32 }
%class.array_util = type { %class.array_recognizers, ptr }
%class.array_recognizers = type { i32 }
%class.fpa_util = type { ptr, ptr, i32, %class.arith_util, %class.bv_util }
%class.seq_util = type { ptr, ptr, ptr, i32, [4 x i8], %"class.seq_util::str", %"class.seq_util::rex" }
%"class.seq_util::str" = type <{ ptr, ptr, i32, [4 x i8] }>
%"class.seq_util::rex" = type { ptr, ptr, i32, %class.vector.2, %class.ref_vector, %"struct.seq_util::rex::info", %"struct.seq_util::rex::info" }
%class.vector.2 = type { ptr }
%"struct.seq_util::rex::info" = type { i32, i8, i32, i32 }
%class.ast_mark = type { ptr, %class.obj_mark, %class.obj_mark.3 }
%class.obj_mark = type { [8 x i8], %class.bit_vector }
%class.bit_vector = type { i32, i32, ptr }
%class.obj_mark.3 = type { [8 x i8], %class.bit_vector }
%class.rational = type { %class.mpq }
%class.mpq = type { %class.mpz, %class.mpz }
%class.mpz = type { i32, i8, ptr }
%class.u_map = type { %class.map }
%class.map = type { %class.table2map }
%class.table2map = type { %class.core_hashtable.4 }
%class.core_hashtable.4 = type <{ ptr, i32, i32, i32, [4 x i8] }>
%class.svector.6 = type { %class.vector.7 }
%class.vector.7 = type { ptr }
%class.symbol = type { ptr }
%class.svector.8 = type { %class.vector.9 }
%class.vector.9 = type { ptr }
%class.vector.10 = type { ptr }
%class.macro_manager = type { ptr, %class.macro_util, %class.obj_map.19, %class.obj_map.24, %class.obj_map.29, %class.ref_vector.34, %class.ref_vector.39, %class.ref_vector.44, %class.ref_vector.49, %class.obj_hashtable, %class.ref_vector.34, %class.obj_hashtable, %class.svector.56, %class.func_decl_dependencies }
%class.macro_util = type { ptr, %class.bv_util, %class.arith_util, %class.arith_rewriter, %class.bv_rewriter, ptr, ptr }
%class.arith_rewriter = type { %class.poly_rewriter.base, i8, i8, i8, i8, i8, i8, i8, i8, i32 }
%class.poly_rewriter.base = type <{ %class.arith_rewriter_core.base, [5 x i8], ptr, %class.obj_map.12, i8, i8, [2 x i8], i32, i8, i8, i8, i8 }>
%class.arith_rewriter_core.base = type <{ ptr, %class.arith_util, %class.scoped_ptr.11, i8, i8, i8 }>
%class.scoped_ptr.11 = type { ptr }
%class.obj_map.12 = type { %class.core_hashtable.13 }
%class.core_hashtable.13 = type <{ ptr, i32, i32, i32, [4 x i8] }>
%class.bv_rewriter = type <{ %class.poly_rewriter.base.18, [4 x i8], %class.mk_extract_proc, %class.arith_util, i8, i8, i8, i8, i8, i8, i8, i8, i8, i8, i8, i8, i8, [3 x i8] }>
%class.poly_rewriter.base.18 = type <{ %class.bv_rewriter_core, ptr, %class.obj_map.12, i8, i8, [2 x i8], i32, i8, i8, i8, i8 }>
%class.bv_rewriter_core = type { ptr, %class.bv_util, %class.obj_ref }
%class.obj_ref = type { ptr, ptr }
%class.mk_extract_proc = type { ptr, i32, i32, ptr, ptr }
%class.obj_map.19 = type { %class.core_hashtable.20 }
%class.core_hashtable.20 = type <{ ptr, i32, i32, i32, [4 x i8] }>
%class.obj_map.24 = type { %class.core_hashtable.25 }
%class.core_hashtable.25 = type <{ ptr, i32, i32, i32, [4 x i8] }>
%class.obj_map.29 = type { %class.core_hashtable.30 }
%class.core_hashtable.30 = type <{ ptr, i32, i32, i32, [4 x i8] }>
%class.ref_vector.39 = type { %class.ref_vector_core.40 }
%class.ref_vector_core.40 = type { %class.ref_manager_wrapper.41, %class.ptr_vector.42 }
%class.ref_manager_wrapper.41 = type { ptr }
%class.ptr_vector.42 = type { %class.vector.43 }
%class.vector.43 = type { ptr }
%class.ref_vector.44 = type { %class.ref_vector_core.45 }
%class.ref_vector_core.45 = type { %class.ref_manager_wrapper.46, %class.ptr_vector.47 }
%class.ref_manager_wrapper.46 = type { ptr }
%class.ptr_vector.47 = type { %class.vector.48 }
%class.vector.48 = type { ptr }
%class.ref_vector.49 = type { %class.ref_vector_core.50 }
%class.ref_vector_core.50 = type { %class.ref_manager_wrapper.51, %class.ptr_vector.52 }
%class.ref_manager_wrapper.51 = type { ptr }
%class.ptr_vector.52 = type { %class.vector.53 }
%class.vector.53 = type { ptr }
%class.ref_vector.34 = type { %class.ref_vector_core.35 }
%class.ref_vector_core.35 = type { %class.ref_manager_wrapper.36, %class.ptr_vector.37 }
%class.ref_manager_wrapper.36 = type { ptr }
%class.ptr_vector.37 = type { %class.vector.38 }
%class.vector.38 = type { ptr }
%class.obj_hashtable = type { %class.core_hashtable.base.55, [4 x i8] }
%class.core_hashtable.base.55 = type <{ ptr, i32, i32, i32 }>
%class.svector.56 = type { %class.vector.57 }
%class.vector.57 = type { ptr }
%class.func_decl_dependencies = type { ptr, %class.obj_map.58 }
%class.obj_map.58 = type { %class.core_hashtable.59 }
%class.core_hashtable.59 = type <{ ptr, i32, i32, i32, [4 x i8] }>
%class.scoped_ptr.63 = type { ptr }
%class.maximize_bv_sharing_rw = type { %class.rewriter_tpl, %class.maximize_bv_sharing }
%class.rewriter_tpl = type { %class.rewriter_core, ptr, i32, %class.ptr_vector, %class.var_shifter, %class.inv_var_shifter, %class.obj_ref, %class.obj_ref.76, %class.obj_ref.76, %class.svector }
%class.rewriter_core = type { ptr, ptr, i8, i8, %class.ptr_vector.64, ptr, %class.svector.66, %class.ref_vector, %class.ptr_vector.64, ptr, %class.ref_vector.44, %class.obj_hashtable.68, ptr, i32, %class.svector.74 }
%class.svector.66 = type { %class.vector.67 }
%class.vector.67 = type { ptr }
%class.ptr_vector.64 = type { %class.vector.65 }
%class.vector.65 = type { ptr }
%class.obj_hashtable.68 = type { %class.core_hashtable.base.72, [4 x i8] }
%class.core_hashtable.base.72 = type <{ ptr, i32, i32, i32 }>
%class.svector.74 = type { %class.vector.75 }
%class.vector.75 = type { ptr }
%class.var_shifter = type <{ %class.var_shifter_core, i32, i32, i32, [4 x i8] }>
%class.var_shifter_core = type { %class.rewriter_core }
%class.inv_var_shifter = type <{ %class.var_shifter_core, i32, [4 x i8] }>
%class.obj_ref.76 = type { ptr, ptr }
%class.maximize_bv_sharing = type { %class.maximize_ac_sharing, %class.bv_util }
%class.maximize_ac_sharing = type { ptr, ptr, i8, %class.region, %class.ptr_hashtable, %class.ptr_vector.80, %class.svector, %class.svector.82 }
%class.region = type { ptr, ptr, ptr, ptr, ptr }
%class.ptr_hashtable = type { %class.core_hashtable.base.79, [4 x i8] }
%class.core_hashtable.base.79 = type <{ ptr, i32, i32, i32 }>
%class.ptr_vector.80 = type { %class.vector.81 }
%class.vector.81 = type { ptr }
%class.svector.82 = type { %class.vector.83 }
%class.vector.83 = type { ptr }
%class.svector.84 = type { %class.vector.85 }
%class.vector.85 = type { ptr }
%"class.asserted_formulas::reduce_asserted_formulas_fn" = type { %"class.asserted_formulas::simplify_fmls" }
%"class.asserted_formulas::simplify_fmls" = type { ptr, ptr, ptr, ptr }
%"class.asserted_formulas::distribute_forall_fn" = type { %"class.asserted_formulas::simplify_fmls", %class.distribute_forall }
%class.distribute_forall = type { ptr, %class.ptr_vector, %class.act_cache, %class.ptr_vector }
%class.act_cache = type <{ ptr, %class.cmap, %class.svector.87, i32, i32, i32, [4 x i8] }>
%class.cmap = type { %class.chashtable }
%class.chashtable = type { ptr, i32, i32, i32, i32, i32, i32, i32, ptr, ptr, ptr }
%class.svector.87 = type { %class.vector.88 }
%class.vector.88 = type { ptr }
%"class.asserted_formulas::pattern_inference_fn" = type { %"class.asserted_formulas::simplify_fmls", %class.pattern_inference_rw }
%class.pattern_inference_rw = type { %class.rewriter_tpl.89, %class.pattern_inference_cfg }
%class.rewriter_tpl.89 = type { %class.rewriter_core, ptr, i32, %class.ptr_vector, %class.var_shifter, %class.inv_var_shifter, %class.obj_ref, %class.obj_ref.76, %class.obj_ref.76, %class.svector }
%class.pattern_inference_cfg = type { ptr, ptr, i32, i32, %class.svector.82, %class.obj_hashtable, %class.smaller_pattern, i32, i32, ptr, i8, i8, i8, [5 x i8], %class.obj_map.95, %class.ref_vector.44, %class.ptr_vector.47, %class.ptr_vector.47, %class.ptr_vector.47, %"struct.pattern_inference_cfg::pattern_weight_lt", %"class.pattern_inference_cfg::collect", %"class.pattern_inference_cfg::contains_subpattern", %class.ptr_vector.110, %class.expr_pattern_match, %class.ptr_buffer }
%class.smaller_pattern = type { %class.ptr_vector, %class.svector.90, %class.obj_pair_hashtable }
%class.svector.90 = type { %class.vector.91 }
%class.vector.91 = type { ptr }
%class.obj_pair_hashtable = type { %class.core_hashtable.base.94, [4 x i8] }
%class.core_hashtable.base.94 = type <{ ptr, i32, i32, i32 }>
%class.obj_map.95 = type { %class.core_hashtable.96 }
%class.core_hashtable.96 = type <{ ptr, i32, i32, i32, [4 x i8] }>
%"struct.pattern_inference_cfg::pattern_weight_lt" = type { ptr }
%"class.pattern_inference_cfg::collect" = type { ptr, ptr, i32, i32, %class.map.100, %class.ptr_vector.106, %class.svector.108 }
%class.map.100 = type { %class.table2map.101 }
%class.table2map.101 = type { %class.core_hashtable.102 }
%class.core_hashtable.102 = type <{ ptr, i32, i32, i32, [4 x i8] }>
%class.ptr_vector.106 = type { %class.vector.107 }
%class.vector.107 = type { ptr }
%class.svector.108 = type { %class.vector.109 }
%class.vector.109 = type { ptr }
%"class.pattern_inference_cfg::contains_subpattern" = type { ptr, %class.nat_set, %class.ptr_vector }
%class.nat_set = type { i32, %class.svector }
%class.ptr_vector.110 = type { %class.vector.111 }
%class.vector.111 = type { ptr }
%class.expr_pattern_match = type { ptr, %class.ref_vector.39, %class.svector, %class.svector.112, %class.ptr_vector, %class.ptr_vector.114, %class.ptr_vector.114 }
%class.svector.112 = type { %class.vector.113 }
%class.vector.113 = type { ptr }
%class.ptr_vector.114 = type { %class.vector.115 }
%class.vector.115 = type { ptr }
%class.ptr_buffer = type { %class.buffer }
%class.buffer = type { ptr, i32, i32, [128 x i8] }
%"class.asserted_formulas::refine_inj_axiom_fn" = type { %"class.asserted_formulas::simplify_fmls" }
%"class.asserted_formulas::max_bv_sharing_fn" = type { %"class.asserted_formulas::simplify_fmls" }
%"class.asserted_formulas::elim_term_ite_fn" = type { %"class.asserted_formulas::simplify_fmls", %class.elim_term_ite_rw }
%class.elim_term_ite_rw = type { %class.rewriter_tpl.116, %class.elim_term_ite_cfg }
%class.rewriter_tpl.116 = type { %class.rewriter_core, ptr, i32, %class.ptr_vector, %class.var_shifter, %class.inv_var_shifter, %class.obj_ref, %class.obj_ref.76, %class.obj_ref.76, %class.svector }
%class.elim_term_ite_cfg = type { ptr, ptr, ptr, %class.vector.10, %class.svector }
%"class.asserted_formulas::qe_lite_fn" = type { %"class.asserted_formulas::simplify_fmls", %class.qe_lite }
%class.qe_lite = type { ptr }
%"class.asserted_formulas::pull_nested_quantifiers" = type { %"class.asserted_formulas::simplify_fmls", %class.pull_nested_quant }
%class.pull_nested_quant = type { ptr }
%"class.asserted_formulas::elim_bvs_from_quantifiers" = type { %"class.asserted_formulas::simplify_fmls", %class.bv_elim_rw }
%class.bv_elim_rw = type { %class.rewriter_tpl.117, %class.bv_elim_cfg }
%class.rewriter_tpl.117 = type { %class.rewriter_core, ptr, i32, %class.ptr_vector, %class.var_shifter, %class.inv_var_shifter, %class.obj_ref, %class.obj_ref.76, %class.obj_ref.76, %class.svector }
%class.bv_elim_cfg = type { ptr }
%"class.asserted_formulas::cheap_quant_fourier_motzkin" = type { %"class.asserted_formulas::simplify_fmls", %class.elim_bounds_rw }
%class.elim_bounds_rw = type { %class.rewriter_tpl.118, %class.elim_bounds_cfg }
%class.rewriter_tpl.118 = type { %class.rewriter_core, ptr, i32, %class.ptr_vector, %class.var_shifter, %class.inv_var_shifter, %class.obj_ref, %class.obj_ref.76, %class.obj_ref.76, %class.svector }
%class.elim_bounds_cfg = type { ptr, %class.arith_util }
%"class.asserted_formulas::apply_bit2int" = type { %"class.asserted_formulas::simplify_fmls", %class.bit2int }
%class.bit2int = type { ptr, %class.bv_util, %class.bv_rewriter, %class.arith_util, %class.expr_map, %class.obj_ref, %class.ptr_vector }
%class.expr_map = type { ptr, i8, [7 x i8], %class.obj_map, %class.obj_map.119 }
%class.obj_map.119 = type { %class.core_hashtable.120 }
%class.core_hashtable.120 = type <{ ptr, i32, i32, i32, [4 x i8] }>
%"class.asserted_formulas::bv_size_reduce_fn" = type { %"class.asserted_formulas::simplify_fmls", %class.expr_safe_replace }
%class.expr_safe_replace = type { ptr, %class.ref_vector, %class.ref_vector, %class.svector, %class.ptr_vector, %class.ptr_vector, %class.ref_vector, %"class.std::unordered_map" }
%"class.std::unordered_map" = type { %"class.std::_Hashtable" }
%"class.std::_Hashtable" = type { ptr, i64, %"struct.std::__detail::_Hash_node_base", i64, %"struct.std::__detail::_Prime_rehash_policy", ptr }
%"struct.std::__detail::_Hash_node_base" = type { ptr }
%"struct.std::__detail::_Prime_rehash_policy" = type { float, i64 }
%"class.asserted_formulas::lift_ite" = type { %"class.asserted_formulas::simplify_fmls", %struct.push_app_ite_rw }
%struct.push_app_ite_rw = type { %class.rewriter_tpl.126, %struct.push_app_ite_cfg }
%class.rewriter_tpl.126 = type { %class.rewriter_core, ptr, i32, %class.ptr_vector, %class.var_shifter, %class.inv_var_shifter, %class.obj_ref, %class.obj_ref.76, %class.obj_ref.76, %class.svector }
%struct.push_app_ite_cfg = type <{ ptr, ptr, i8, [7 x i8] }>
%"class.asserted_formulas::ng_lift_ite" = type { %"class.asserted_formulas::simplify_fmls", %struct.ng_push_app_ite_rw }
%struct.ng_push_app_ite_rw = type { %class.rewriter_tpl.127, %class.ng_push_app_ite_cfg }
%class.rewriter_tpl.127 = type { %class.rewriter_core, ptr, i32, %class.ptr_vector, %class.var_shifter, %class.inv_var_shifter, %class.obj_ref, %class.obj_ref.76, %class.obj_ref.76, %class.svector }
%class.ng_push_app_ite_cfg = type { %struct.push_app_ite_cfg.base, [7 x i8] }
%struct.push_app_ite_cfg.base = type <{ ptr, ptr, i8 }>
%"class.asserted_formulas::find_macros_fn" = type { %"class.asserted_formulas::simplify_fmls" }
%"class.asserted_formulas::propagate_values_fn" = type { %"class.asserted_formulas::simplify_fmls" }
%"class.asserted_formulas::nnf_cnf_fn" = type { %"class.asserted_formulas::simplify_fmls" }
%"class.asserted_formulas::apply_quasi_macros_fn" = type { %"class.asserted_formulas::simplify_fmls" }
%"class.asserted_formulas::flatten_clauses_fn" = type { %"class.asserted_formulas::simplify_fmls" }
%class.justified_expr = type { ptr, ptr, ptr }

; Function Attrs: mustprogress nounwind uwtable
define linkonce_odr hidden noundef i32 @_ZNK6vectorI14justified_exprLb1EjE4sizeEv(ptr noundef nonnull align 8 dereferenceable(8) %0) #7 comdat align 2 {
  %2 = alloca i32, align 4
  %3 = alloca ptr, align 8
  store ptr %0, ptr %3, align 8, !tbaa !308
  %4 = load ptr, ptr %3, align 8
  %5 = getelementptr inbounds nuw %class.vector.10, ptr %4, i32 0, i32 0
  %6 = load ptr, ptr %5, align 8, !tbaa !310
  %7 = icmp eq ptr %6, null
  br i1 %7, label %8, label %9

8:                                                ; preds = %1
  store i32 0, ptr %2, align 4
  br label %14

9:                                                ; preds = %1
  %10 = getelementptr inbounds nuw %class.vector.10, ptr %4, i32 0, i32 0
  %11 = load ptr, ptr %10, align 8, !tbaa !310
  %12 = getelementptr inbounds i32, ptr %11, i64 -1
  %13 = load i32, ptr %12, align 4, !tbaa !410
  store i32 %13, ptr %2, align 4
  br label %14

14:                                               ; preds = %9, %8
  %15 = load i32, ptr %2, align 4
  ret i32 %15
}

; Function Attrs: mustprogress uwtable
define linkonce_odr hidden noundef nonnull align 8 dereferenceable(8) ptr @_ZN6vectorIP4exprLb0EjE9push_backEOS1_(ptr noundef nonnull align 8 dereferenceable(8) %0, ptr noundef nonnull align 8 dereferenceable(8) %1) #4 comdat align 2 {
  %3 = alloca ptr, align 8
  %4 = alloca ptr, align 8
  store ptr %0, ptr %3, align 8, !tbaa !486
  store ptr %1, ptr %4, align 8, !tbaa !475
  %5 = load ptr, ptr %3, align 8
  %6 = getelementptr inbounds nuw %class.vector, ptr %5, i32 0, i32 0
  %7 = load ptr, ptr %6, align 8, !tbaa !488
  %8 = icmp eq ptr %7, null
  br i1 %8, label %19, label %9

9:                                                ; preds = %2
  %10 = getelementptr inbounds nuw %class.vector, ptr %5, i32 0, i32 0
  %11 = load ptr, ptr %10, align 8, !tbaa !488
  %12 = getelementptr inbounds i32, ptr %11, i64 -1
  %13 = load i32, ptr %12, align 4, !tbaa !410
  %14 = getelementptr inbounds nuw %class.vector, ptr %5, i32 0, i32 0
  %15 = load ptr, ptr %14, align 8, !tbaa !488
  %16 = getelementptr inbounds i32, ptr %15, i64 -2
  %17 = load i32, ptr %16, align 4, !tbaa !410
  %18 = icmp eq i32 %13, %17
  br i1 %18, label %19, label %20

19:                                               ; preds = %9, %2
  call void @_ZN6vectorIP4exprLb0EjE13expand_vectorEv(ptr noundef nonnull align 8 dereferenceable(8) %5)
  br label %20

20:                                               ; preds = %19, %9
  %21 = getelementptr inbounds nuw %class.vector, ptr %5, i32 0, i32 0
  %22 = load ptr, ptr %21, align 8, !tbaa !488
  %23 = getelementptr inbounds nuw %class.vector, ptr %5, i32 0, i32 0
  %24 = load ptr, ptr %23, align 8, !tbaa !488
  %25 = getelementptr inbounds i32, ptr %24, i64 -1
  %26 = load i32, ptr %25, align 4, !tbaa !410
  %27 = zext i32 %26 to i64
  %28 = getelementptr inbounds nuw ptr, ptr %22, i64 %27
  %29 = load ptr, ptr %4, align 8, !tbaa !475
  %30 = load ptr, ptr %29, align 8, !tbaa !408
  store ptr %30, ptr %28, align 8, !tbaa !408
  %31 = getelementptr inbounds nuw %class.vector, ptr %5, i32 0, i32 0
  %32 = load ptr, ptr %31, align 8, !tbaa !488
  %33 = getelementptr inbounds i32, ptr %32, i64 -1
  %34 = load i32, ptr %33, align 4, !tbaa !410
  %35 = add i32 %34, 1
  store i32 %35, ptr %33, align 4, !tbaa !410
  ret ptr %5
}

; Function Attrs: mustprogress nounwind uwtable
define linkonce_odr hidden noundef ptr @_ZNK14justified_expr3fmlEv(ptr noundef nonnull align 8 dereferenceable(24) %0) #7 comdat align 2 {
  %2 = alloca ptr, align 8
  store ptr %0, ptr %2, align 8, !tbaa !458
  %3 = load ptr, ptr %2, align 8
  %4 = getelementptr inbounds nuw %class.justified_expr, ptr %3, i32 0, i32 1
  %5 = load ptr, ptr %4, align 8, !tbaa !459
  ret ptr %5
}

; Function Attrs: mustprogress nounwind uwtable
define linkonce_odr hidden noundef ptr @_ZNK6vectorI14justified_exprLb1EjE3endEv(ptr noundef nonnull align 8 dereferenceable(8) %0) #7 comdat align 2 {
  %2 = alloca ptr, align 8
  store ptr %0, ptr %2, align 8, !tbaa !308
  %3 = load ptr, ptr %2, align 8
  %4 = getelementptr inbounds nuw %class.vector.10, ptr %3, i32 0, i32 0
  %5 = load ptr, ptr %4, align 8, !tbaa !310
  %6 = call noundef i32 @_ZNK6vectorI14justified_exprLb1EjE4sizeEv(ptr noundef nonnull align 8 dereferenceable(8) %3)
  %7 = zext i32 %6 to i64
  %8 = getelementptr inbounds nuw %class.justified_expr, ptr %5, i64 %7
  ret ptr %8
}

; Function Attrs: mustprogress nounwind uwtable
define linkonce_odr hidden noundef ptr @_ZNK6vectorI14justified_exprLb1EjE5beginEv(ptr noundef nonnull align 8 dereferenceable(8) %0) #7 comdat align 2 {
  %2 = alloca ptr, align 8
  store ptr %0, ptr %2, align 8, !tbaa !308
  %3 = load ptr, ptr %2, align 8
  %4 = getelementptr inbounds nuw %class.vector.10, ptr %3, i32 0, i32 0
  %5 = load ptr, ptr %4, align 8, !tbaa !310
  ret ptr %5
}

; Function Attrs: mustprogress uwtable
define hidden void @_ZNK17asserted_formulas14get_assertionsER10ptr_vectorI4exprE(ptr noundef nonnull align 8 dereferenceable(7236) %0, ptr noundef nonnull align 8 dereferenceable(8) %1) #4 align 2 {
  %3 = alloca ptr, align 8
  %4 = alloca ptr, align 8
  %5 = alloca ptr, align 8
  %6 = alloca ptr, align 8
  %7 = alloca ptr, align 8
  %8 = alloca ptr, align 8
  %9 = alloca ptr, align 8
  store ptr %0, ptr %3, align 8, !tbaa !3
  store ptr %1, ptr %4, align 8, !tbaa !484
  %10 = load ptr, ptr %3, align 8
  call void @llvm.lifetime.start.p0(i64 8, ptr %5) #3
  %11 = getelementptr inbounds nuw %class.asserted_formulas, ptr %10, i32 0, i32 8
  store ptr %11, ptr %5, align 8, !tbaa !308
  call void @llvm.lifetime.start.p0(i64 8, ptr %6) #3
  %12 = load ptr, ptr %5, align 8, !tbaa !308
  %13 = call noundef ptr @_ZNK6vectorI14justified_exprLb1EjE5beginEv(ptr noundef nonnull align 8 dereferenceable(8) %12)
  store ptr %13, ptr %6, align 8, !tbaa !458
  call void @llvm.lifetime.start.p0(i64 8, ptr %7) #3
  %14 = load ptr, ptr %5, align 8, !tbaa !308
  %15 = call noundef ptr @_ZNK6vectorI14justified_exprLb1EjE3endEv(ptr noundef nonnull align 8 dereferenceable(8) %14)
  store ptr %15, ptr %7, align 8, !tbaa !458
  br label %16

16:                                               ; preds = %27, %2
  %17 = load ptr, ptr %6, align 8, !tbaa !458
  %18 = load ptr, ptr %7, align 8, !tbaa !458
  %19 = icmp ne ptr %17, %18
  br i1 %19, label %21, label %20

20:                                               ; preds = %16
  call void @llvm.lifetime.end.p0(i64 8, ptr %7) #3
  call void @llvm.lifetime.end.p0(i64 8, ptr %6) #3
  call void @llvm.lifetime.end.p0(i64 8, ptr %5) #3
  br label %30

21:                                               ; preds = %16
  call void @llvm.lifetime.start.p0(i64 8, ptr %8) #3
  %22 = load ptr, ptr %6, align 8, !tbaa !458
  store ptr %22, ptr %8, align 8, !tbaa !458
  %23 = load ptr, ptr %4, align 8, !tbaa !484
  call void @llvm.lifetime.start.p0(i64 8, ptr %9) #3
  %24 = load ptr, ptr %8, align 8, !tbaa !458
  %25 = call noundef ptr @_ZNK14justified_expr3fmlEv(ptr noundef nonnull align 8 dereferenceable(24) %24)
  store ptr %25, ptr %9, align 8, !tbaa !408
  %26 = call noundef nonnull align 8 dereferenceable(8) ptr @_ZN6vectorIP4exprLb0EjE9push_backEOS1_(ptr noundef nonnull align 8 dereferenceable(8) %23, ptr noundef nonnull align 8 dereferenceable(8) %9)
  call void @llvm.lifetime.end.p0(i64 8, ptr %9) #3
  call void @llvm.lifetime.end.p0(i64 8, ptr %8) #3
  br label %27

27:                                               ; preds = %21
  %28 = load ptr, ptr %6, align 8, !tbaa !458
  %29 = getelementptr inbounds nuw %class.justified_expr, ptr %28, i32 1
  store ptr %29, ptr %6, align 8, !tbaa !458
  br label %16

30:                                               ; preds = %20
  ret void
}