; Function Attrs: mustprogress uwtable
define hidden void @_ZNK17asserted_formulas14get_assertionsER10ptr_vectorI4exprE(ptr noundef nonnull readonly align 8 captures(none) dereferenceable(7236) %0, ptr noundef nonnull align 8 dereferenceable(8) %1) local_unnamed_addr #3 align 2 {
  %3 = getelementptr inbounds nuw i8, ptr %0, i64 936
  %4 = load ptr, ptr %3, align 8, !tbaa !25
  %5 = icmp eq ptr %4, null
  br i1 %5, label %._crit_edge, label %_ZNK6vectorI14justified_exprLb1EjE3endEv.exit

_ZNK6vectorI14justified_exprLb1EjE3endEv.exit:    ; preds = %2
  %6 = getelementptr inbounds i8, ptr %4, i64 -4
  %7 = load i32, ptr %6, align 4, !tbaa !385
  %8 = zext i32 %7 to i64
  %9 = getelementptr inbounds nuw %class.justified_expr, ptr %4, i64 %8
  %.not9 = icmp eq i32 %7, 0
  br i1 %.not9, label %._crit_edge, label %.lr.ph.preheader

.lr.ph.preheader:                                 ; preds = %_ZNK6vectorI14justified_exprLb1EjE3endEv.exit
  %.pre = load ptr, ptr %1, align 8, !tbaa !356
  br label %.lr.ph

._crit_edge:                                      ; preds = %_ZN6vectorIP4exprLb0EjE9push_backEOS1_.exit, %2, %_ZNK6vectorI14justified_exprLb1EjE3endEv.exit
  ret void

.lr.ph:                                           ; preds = %.lr.ph.preheader, %_ZN6vectorIP4exprLb0EjE9push_backEOS1_.exit
  %10 = phi ptr [ %21, %_ZN6vectorIP4exprLb0EjE9push_backEOS1_.exit ], [ %.pre, %.lr.ph.preheader ]
  %.010 = phi ptr [ %27, %_ZN6vectorIP4exprLb0EjE9push_backEOS1_.exit ], [ %4, %.lr.ph.preheader ]
  %11 = getelementptr inbounds nuw i8, ptr %.010, i64 8
  %12 = load ptr, ptr %11, align 8, !tbaa !444
  %13 = icmp eq ptr %10, null
  br i1 %13, label %20, label %14

14:                                               ; preds = %.lr.ph
  %15 = getelementptr inbounds i8, ptr %10, i64 -4
  %16 = load i32, ptr %15, align 4, !tbaa !385
  %17 = getelementptr inbounds i8, ptr %10, i64 -8
  %18 = load i32, ptr %17, align 4, !tbaa !385
  %19 = icmp eq i32 %16, %18
  br i1 %19, label %20, label %_ZN6vectorIP4exprLb0EjE9push_backEOS1_.exit

20:                                               ; preds = %14, %.lr.ph
  tail call void @_ZN6vectorIP4exprLb0EjE13expand_vectorEv(ptr noundef nonnull align 8 dereferenceable(8) %1)
  %.pre.i = load ptr, ptr %1, align 8, !tbaa !356
  %.phi.trans.insert.i = getelementptr inbounds i8, ptr %.pre.i, i64 -4
  %.pre2.i = load i32, ptr %.phi.trans.insert.i, align 4, !tbaa !385
  br label %_ZN6vectorIP4exprLb0EjE9push_backEOS1_.exit

_ZN6vectorIP4exprLb0EjE9push_backEOS1_.exit:      ; preds = %14, %20
  %21 = phi ptr [ %.pre.i, %20 ], [ %10, %14 ]
  %22 = phi i32 [ %.pre2.i, %20 ], [ %16, %14 ]
  %23 = getelementptr inbounds i8, ptr %21, i64 -4
  %24 = zext i32 %22 to i64
  %25 = getelementptr inbounds nuw ptr, ptr %21, i64 %24
  store ptr %12, ptr %25, align 8, !tbaa !415
  %26 = add i32 %22, 1
  store i32 %26, ptr %23, align 4, !tbaa !385
  %27 = getelementptr inbounds nuw i8, ptr %.010, i64 24
  %.not = icmp eq ptr %27, %9
  br i1 %.not, label %._crit_edge, label %.lr.ph
}